target datalayout = "e-m:e-p270:32:32-p271:32:32-p272:64:64-i64:64-i128:128-f80:128-n8:16:32:64-S128"
target triple = "x86_64-pc-linux-gnu"

%"class.cv::utils::trace::details::Region" = type <{ ptr, i32, [4 x i8] }>
%"class.std::shared_ptr" = type { %"class.std::__shared_ptr" }
%"class.std::__shared_ptr" = type { ptr, %"class.std::__shared_count" }
%"class.std::__shared_count" = type { ptr }

; Function Attrs: mustprogress nounwind uwtable
define linkonce_odr hidden noundef ptr @_ZNKSt12__shared_ptrIN2cv15highgui_backend8UIWindowELN9__gnu_cxx12_Lock_policyE2EE3getEv(ptr noundef nonnull align 8 dereferenceable(16) %0) #7 comdat align 2 {
  %2 = alloca ptr, align 8
  store ptr %0, ptr %2, align 8
  %3 = load ptr, ptr %2, align 8
  %4 = getelementptr inbounds %"class.std::__shared_ptr", ptr %3, i32 0, i32 0
  %5 = load ptr, ptr %4, align 8
  ret ptr %5
}

; Function Attrs: mustprogress nounwind uwtable
define linkonce_odr hidden noundef ptr @_ZNKSt19__shared_ptr_accessIN2cv15highgui_backend8UIWindowELN9__gnu_cxx12_Lock_policyE2ELb0ELb0EE6_M_getEv(ptr noundef nonnull align 1 dereferenceable(1) %0) #7 comdat align 2 {
  %2 = alloca ptr, align 8
  store ptr %0, ptr %2, align 8
  %3 = load ptr, ptr %2, align 8
  %4 = call noundef ptr @_ZNKSt12__shared_ptrIN2cv15highgui_backend8UIWindowELN9__gnu_cxx12_Lock_policyE2EE3getEv(ptr noundef nonnull align 8 dereferenceable(16) %3) #3
  ret ptr %4
}

; Function Attrs: mustprogress nounwind uwtable
define linkonce_odr hidden noundef ptr @_ZNKSt19__shared_ptr_accessIN2cv15highgui_backend8UIWindowELN9__gnu_cxx12_Lock_policyE2ELb0ELb0EEptEv(ptr noundef nonnull align 1 dereferenceable(1) %0) #7 comdat align 2 {
  %2 = alloca ptr, align 8
  store ptr %0, ptr %2, align 8
  %3 = load ptr, ptr %2, align 8
  %4 = call noundef ptr @_ZNKSt19__shared_ptr_accessIN2cv15highgui_backend8UIWindowELN9__gnu_cxx12_Lock_policyE2ELb0ELb0EE6_M_getEv(ptr noundef nonnull align 1 dereferenceable(1) %3) #3
  ret ptr %4
}

; Function Attrs: mustprogress nounwind uwtable
define linkonce_odr hidden noundef zeroext i1 @_ZNKSt12__shared_ptrIN2cv15highgui_backend8UIWindowELN9__gnu_cxx12_Lock_policyE2EEcvbEv(ptr noundef nonnull align 8 dereferenceable(16) %0) #7 comdat align 2 {
  %2 = alloca ptr, align 8
  store ptr %0, ptr %2, align 8
  %3 = load ptr, ptr %2, align 8
  %4 = getelementptr inbounds %"class.std::__shared_ptr", ptr %3, i32 0, i32 0
  %5 = load ptr, ptr %4, align 8
  %6 = icmp ne ptr %5, null
  ret i1 %6
}

; Function Attrs: mustprogress uwtable
define void @_ZN2cv10moveWindowERKNSt7__cxx1112basic_stringIcSt11char_traitsIcESaIcEEEii(ptr noundef nonnull align 8 dereferenceable(32) %0, i32 noundef %1, i32 noundef %2) #4 personality ptr @__gxx_personality_v0 {
  %4 = alloca ptr, align 8
  %5 = alloca i32, align 4
  %6 = alloca i32, align 4
  %7 = alloca %"class.cv::utils::trace::details::Region", align 8
  %8 = alloca %"class.std::shared_ptr", align 8
  %9 = alloca ptr, align 8
  %10 = alloca i32, align 4
  %11 = alloca i32, align 4
  store ptr %0, ptr %4, align 8
  store i32 %1, ptr %5, align 4
  store i32 %2, ptr %6, align 4
  call void @_ZN2cv5utils5trace7details6RegionC1ERKNS3_21LocationStaticStorageE(ptr noundef nonnull align 8 dereferenceable(12) %7, ptr noundef nonnull align 8 dereferenceable(32) @_ZZN2cv10moveWindowERKNSt7__cxx1112basic_stringIcSt11char_traitsIcESaIcEEEiiE25__cv_trace_location_fn560)
  %12 = load ptr, ptr %4, align 8
  invoke void @_ZN2cv4implL11findWindow_ERKNSt7__cxx1112basic_stringIcSt11char_traitsIcESaIcEEE(ptr dead_on_unwind writable sret(%"class.std::shared_ptr") align 8 %8, ptr noundef nonnull align 8 dereferenceable(32) %12)
          to label %13 unwind label %23

13:                                               ; preds = %3
  %14 = call noundef zeroext i1 @_ZNKSt12__shared_ptrIN2cv15highgui_backend8UIWindowELN9__gnu_cxx12_Lock_policyE2EEcvbEv(ptr noundef nonnull align 8 dereferenceable(16) %8) #3
  br i1 %14, label %15, label %31

15:                                               ; preds = %13
  %16 = call noundef ptr @_ZNKSt19__shared_ptr_accessIN2cv15highgui_backend8UIWindowELN9__gnu_cxx12_Lock_policyE2ELb0ELb0EEptEv(ptr noundef nonnull align 1 dereferenceable(1) %8) #3
  %17 = load i32, ptr %5, align 4
  %18 = load i32, ptr %6, align 4
  %19 = load ptr, ptr %16, align 8
  %20 = getelementptr inbounds ptr, ptr %19, i64 9
  %21 = load ptr, ptr %20, align 8
  invoke void %21(ptr noundef nonnull align 8 dereferenceable(8) %16, i32 noundef %17, i32 noundef %18)
          to label %22 unwind label %27

22:                                               ; preds = %15
  store i32 1, ptr %11, align 4
  br label %32

23:                                               ; preds = %34, %3
  %24 = landingpad { ptr, i32 }
          cleanup
  %25 = extractvalue { ptr, i32 } %24, 0
  store ptr %25, ptr %9, align 8
  %26 = extractvalue { ptr, i32 } %24, 1
  store i32 %26, ptr %10, align 4
  br label %43

27:                                               ; preds = %15
  %28 = landingpad { ptr, i32 }
          cleanup
  %29 = extractvalue { ptr, i32 } %28, 0
  store ptr %29, ptr %9, align 8
  %30 = extractvalue { ptr, i32 } %28, 1
  store i32 %30, ptr %10, align 4
  call void @_ZNSt10shared_ptrIN2cv15highgui_backend8UIWindowEED2Ev(ptr noundef nonnull align 8 dereferenceable(16) %8) #3
  br label %43

31:                                               ; preds = %13
  store i32 0, ptr %11, align 4
  br label %32

32:                                               ; preds = %31, %22
  call void @_ZNSt10shared_ptrIN2cv15highgui_backend8UIWindowEED2Ev(ptr noundef nonnull align 8 dereferenceable(16) %8) #3
  %33 = load i32, ptr %11, align 4
  switch i32 %33, label %40 [
    i32 0, label %34
  ]

34:                                               ; preds = %32
  %35 = load ptr, ptr %4, align 8
  %36 = call noundef ptr @_ZNKSt7__cxx1112basic_stringIcSt11char_traitsIcESaIcEE5c_strEv(ptr noundef nonnull align 8 dereferenceable(32) %35) #3
  %37 = load i32, ptr %5, align 4
  %38 = load i32, ptr %6, align 4
  invoke void @cvMoveWindow(ptr noundef %36, i32 noundef %37, i32 noundef %38)
          to label %39 unwind label %23

39:                                               ; preds = %34
  store i32 0, ptr %11, align 4
  br label %40

40:                                               ; preds = %39, %32
  call void @_ZN2cv5utils5trace7details6RegionD2Ev(ptr noundef nonnull align 8 dereferenceable(12) %7) #3
  %41 = load i32, ptr %11, align 4
  switch i32 %41, label %49 [
    i32 0, label %42
    i32 1, label %42
  ]

42:                                               ; preds = %40, %40
  ret void

43:                                               ; preds = %27, %23
  call void @_ZN2cv5utils5trace7details6RegionD2Ev(ptr noundef nonnull align 8 dereferenceable(12) %7) #3
  br label %44

44:                                               ; preds = %43
  %45 = load ptr, ptr %9, align 8
  %46 = load i32, ptr %10, align 4
  %47 = insertvalue { ptr, i32 } poison, ptr %45, 0
  %48 = insertvalue { ptr, i32 } %47, i32 %46, 1
  resume { ptr, i32 } %48

49:                                               ; preds = %40
  unreachable
}